; Function Attrs: nounwind uwtable
define range(i32 0, 2) i32 @EVP_PKEY_get_params(ptr noundef %0, ptr noundef %1) local_unnamed_addr #0 {
  %.not = icmp eq ptr %0, null
  br i1 %.not, label %16, label %3

3:                                                ; preds = %2
  %4 = getelementptr inbounds nuw i8, ptr %0, i64 96
  %5 = load ptr, ptr %4, align 8, !tbaa !30
  %.not11 = icmp eq ptr %5, null
  br i1 %.not11, label %11, label %6

6:                                                ; preds = %3
  %7 = getelementptr inbounds nuw i8, ptr %0, i64 104
  %8 = load ptr, ptr %7, align 8, !tbaa !33
  %9 = tail call i32 @evp_keymgmt_get_params(ptr noundef nonnull %5, ptr noundef %8, ptr noundef %1) #12
  %10 = icmp sgt i32 %9, 0
  br label %17

11:                                               ; preds = %3
  %12 = load i32, ptr %0, align 8, !tbaa !26
  %.not12 = icmp eq i32 %12, 0
  br i1 %.not12, label %16, label %13

13:                                               ; preds = %11
  %14 = tail call i32 @evp_pkey_get_params_to_ctrl(ptr noundef nonnull %0, ptr noundef %1) #12
  %15 = icmp sgt i32 %14, 0
  br label %17

16:                                               ; preds = %11, %2
  tail call void @ERR_new() #12
  tail call void @ERR_set_debug(ptr noundef nonnull @.str, i32 noundef 2459, ptr noundef nonnull @__func__.EVP_PKEY_get_params) #12
  tail call void (i32, i32, ptr, ...) @ERR_set_error(i32 noundef 6, i32 noundef 163, ptr noundef null) #12
  br label %17

17:                                               ; preds = %16, %13, %6
  %.0.shrunk = phi i1 [ %10, %6 ], [ %15, %13 ], [ false, %16 ]
  %.0 = zext i1 %.0.shrunk to i32
  ret i32 %.0
}